target datalayout = "e-m:e-p270:32:32-p271:32:32-p272:64:64-i64:64-i128:128-f80:128-n8:16:32:64-S128"
target triple = "x86_64-unknown-linux-gnu"

%"class.icu_75::TransliterationRule" = type { ptr, ptr, ptr, ptr, ptr, %"class.icu_75::UnicodeString", ptr, i32, i32, i32, i8, ptr }
%"class.icu_75::UnicodeString" = type { %"class.icu_75::Replaceable", %"union.icu_75::UnicodeString::StackBufferOrFields" }
%"class.icu_75::Replaceable" = type { %"class.icu_75::UObject" }
%"class.icu_75::UObject" = type { ptr }
%"union.icu_75::UnicodeString::StackBufferOrFields" = type { %struct.anon.0, [32 x i8] }
%struct.anon.0 = type { i16, i32, i32, ptr }

; Function Attrs: mustprogress uwtable
define void @_ZN6icu_7519TransliterationRuleC2ERS0_(ptr noundef nonnull align 8 dereferenceable(136) %this, ptr noundef nonnull align 8 dereferenceable(136) %other) unnamed_addr #1 align 2 personality ptr @__gxx_personality_v0 {
entry:
  %this.addr = alloca ptr, align 8
  %other.addr = alloca ptr, align 8
  %exn.slot = alloca ptr, align 8
  %ehselector.slot = alloca i32, align 4
  store ptr %this, ptr %this.addr, align 8
  store ptr %other, ptr %other.addr, align 8
  %this1 = load ptr, ptr %this.addr, align 8
  store ptr getelementptr inbounds ({ [7 x ptr] }, ptr @_ZTVN6icu_7519TransliterationRuleE, i32 0, i32 0, i32 2), ptr %this1, align 8
  %anteContext = getelementptr inbounds %"class.icu_75::TransliterationRule", ptr %this1, i32 0, i32 1
  store ptr null, ptr %anteContext, align 8
  %key = getelementptr inbounds %"class.icu_75::TransliterationRule", ptr %this1, i32 0, i32 2
  store ptr null, ptr %key, align 8
  %postContext = getelementptr inbounds %"class.icu_75::TransliterationRule", ptr %this1, i32 0, i32 3
  store ptr null, ptr %postContext, align 8
  %pattern = getelementptr inbounds %"class.icu_75::TransliterationRule", ptr %this1, i32 0, i32 5
  %0 = load ptr, ptr %other.addr, align 8
  %pattern2 = getelementptr inbounds %"class.icu_75::TransliterationRule", ptr %0, i32 0, i32 5
  call void @_ZN6icu_7513UnicodeStringC1ERKS0_(ptr noundef nonnull align 8 dereferenceable(64) %pattern, ptr noundef nonnull align 8 dereferenceable(64) %pattern2)
  %anteContextLength = getelementptr inbounds %"class.icu_75::TransliterationRule", ptr %this1, i32 0, i32 8
  %1 = load ptr, ptr %other.addr, align 8
  %anteContextLength3 = getelementptr inbounds %"class.icu_75::TransliterationRule", ptr %1, i32 0, i32 8
  %2 = load i32, ptr %anteContextLength3, align 4
  store i32 %2, ptr %anteContextLength, align 4
  %keyLength = getelementptr inbounds %"class.icu_75::TransliterationRule", ptr %this1, i32 0, i32 9
  %3 = load ptr, ptr %other.addr, align 8
  %keyLength4 = getelementptr inbounds %"class.icu_75::TransliterationRule", ptr %3, i32 0, i32 9
  %4 = load i32, ptr %keyLength4, align 8
  store i32 %4, ptr %keyLength, align 8
  %flags = getelementptr inbounds %"class.icu_75::TransliterationRule", ptr %this1, i32 0, i32 10
  %5 = load ptr, ptr %other.addr, align 8
  %flags5 = getelementptr inbounds %"class.icu_75::TransliterationRule", ptr %5, i32 0, i32 10
  %6 = load i8, ptr %flags5, align 4
  store i8 %6, ptr %flags, align 4
  %data = getelementptr inbounds %"class.icu_75::TransliterationRule", ptr %this1, i32 0, i32 11
  %7 = load ptr, ptr %other.addr, align 8
  %data6 = getelementptr inbounds %"class.icu_75::TransliterationRule", ptr %7, i32 0, i32 11
  %8 = load ptr, ptr %data6, align 8
  store ptr %8, ptr %data, align 8
  %segments = getelementptr inbounds %"class.icu_75::TransliterationRule", ptr %this1, i32 0, i32 6
  store ptr null, ptr %segments, align 8
  %segmentsCount = getelementptr inbounds %"class.icu_75::TransliterationRule", ptr %this1, i32 0, i32 7
  store i32 0, ptr %segmentsCount, align 8
  %9 = load ptr, ptr %other.addr, align 8
  %segmentsCount7 = getelementptr inbounds %"class.icu_75::TransliterationRule", ptr %9, i32 0, i32 7
  %10 = load i32, ptr %segmentsCount7, align 8
  %cmp = icmp sgt i32 %10, 0
  br i1 %cmp, label %if.then, label %if.end

if.then:                                          ; preds = %entry
  %11 = load ptr, ptr %other.addr, align 8
  %segmentsCount8 = getelementptr inbounds %"class.icu_75::TransliterationRule", ptr %11, i32 0, i32 7
  %12 = load i32, ptr %segmentsCount8, align 8
  %conv = sext i32 %12 to i64
  %mul = mul i64 %conv, 8
  %call = invoke noalias ptr @uprv_malloc_75(i64 noundef %mul) #8
          to label %invoke.cont unwind label %lpad

invoke.cont:                                      ; preds = %if.then
  %segments9 = getelementptr inbounds %"class.icu_75::TransliterationRule", ptr %this1, i32 0, i32 6
  store ptr %call, ptr %segments9, align 8
  br label %do.body

do.body:                                          ; preds = %invoke.cont
  %segments10 = getelementptr inbounds %"class.icu_75::TransliterationRule", ptr %this1, i32 0, i32 6
  %13 = load ptr, ptr %segments10, align 8
  %14 = load ptr, ptr %other.addr, align 8
  %segments11 = getelementptr inbounds %"class.icu_75::TransliterationRule", ptr %14, i32 0, i32 6
  %15 = load ptr, ptr %segments11, align 8
  %16 = load ptr, ptr %other.addr, align 8
  %segmentsCount12 = getelementptr inbounds %"class.icu_75::TransliterationRule", ptr %16, i32 0, i32 7
  %17 = load i32, ptr %segmentsCount12, align 8
  %conv13 = sext i32 %17 to i64
  %mul14 = mul i64 %conv13, 8
  call void @llvm.memcpy.p0.p0.i64(ptr align 8 %13, ptr align 8 %15, i64 %mul14, i1 false)
  br label %do.cond

do.cond:                                          ; preds = %do.body
  br label %do.end

do.end:                                           ; preds = %do.cond
  br label %if.end

lpad:                                             ; preds = %if.end42, %if.then35, %if.then25, %if.then17, %if.then
  %18 = landingpad { ptr, i32 }
          cleanup
  %19 = extractvalue { ptr, i32 } %18, 0
  store ptr %19, ptr %exn.slot, align 8
  %20 = extractvalue { ptr, i32 } %18, 1
  store i32 %20, ptr %ehselector.slot, align 4
  call void @_ZN6icu_7513UnicodeStringD1Ev(ptr noundef nonnull align 8 dereferenceable(64) %pattern) #7
  br label %eh.resume

if.end:                                           ; preds = %do.end, %entry
  %21 = load ptr, ptr %other.addr, align 8
  %anteContext15 = getelementptr inbounds %"class.icu_75::TransliterationRule", ptr %21, i32 0, i32 1
  %22 = load ptr, ptr %anteContext15, align 8
  %cmp16 = icmp ne ptr %22, null
  br i1 %cmp16, label %if.then17, label %if.end22

if.then17:                                        ; preds = %if.end
  %23 = load ptr, ptr %other.addr, align 8
  %anteContext18 = getelementptr inbounds %"class.icu_75::TransliterationRule", ptr %23, i32 0, i32 1
  %24 = load ptr, ptr %anteContext18, align 8
  %vtable = load ptr, ptr %24, align 8
  %vfn = getelementptr inbounds ptr, ptr %vtable, i64 3
  %25 = load ptr, ptr %vfn, align 8
  %call20 = invoke noundef ptr %25(ptr noundef nonnull align 8 dereferenceable(108) %24)
          to label %invoke.cont19 unwind label %lpad

invoke.cont19:                                    ; preds = %if.then17
  %anteContext21 = getelementptr inbounds %"class.icu_75::TransliterationRule", ptr %this1, i32 0, i32 1
  store ptr %call20, ptr %anteContext21, align 8
  br label %if.end22

if.end22:                                         ; preds = %invoke.cont19, %if.end
  %26 = load ptr, ptr %other.addr, align 8
  %key23 = getelementptr inbounds %"class.icu_75::TransliterationRule", ptr %26, i32 0, i32 2
  %27 = load ptr, ptr %key23, align 8
  %cmp24 = icmp ne ptr %27, null
  br i1 %cmp24, label %if.then25, label %if.end32

if.then25:                                        ; preds = %if.end22
  %28 = load ptr, ptr %other.addr, align 8
  %key26 = getelementptr inbounds %"class.icu_75::TransliterationRule", ptr %28, i32 0, i32 2
  %29 = load ptr, ptr %key26, align 8
  %vtable27 = load ptr, ptr %29, align 8
  %vfn28 = getelementptr inbounds ptr, ptr %vtable27, i64 3
  %30 = load ptr, ptr %vfn28, align 8
  %call30 = invoke noundef ptr %30(ptr noundef nonnull align 8 dereferenceable(108) %29)
          to label %invoke.cont29 unwind label %lpad

invoke.cont29:                                    ; preds = %if.then25
  %key31 = getelementptr inbounds %"class.icu_75::TransliterationRule", ptr %this1, i32 0, i32 2
  store ptr %call30, ptr %key31, align 8
  br label %if.end32

if.end32:                                         ; preds = %invoke.cont29, %if.end22
  %31 = load ptr, ptr %other.addr, align 8
  %postContext33 = getelementptr inbounds %"class.icu_75::TransliterationRule", ptr %31, i32 0, i32 3
  %32 = load ptr, ptr %postContext33, align 8
  %cmp34 = icmp ne ptr %32, null
  br i1 %cmp34, label %if.then35, label %if.end42

if.then35:                                        ; preds = %if.end32
  %33 = load ptr, ptr %other.addr, align 8
  %postContext36 = getelementptr inbounds %"class.icu_75::TransliterationRule", ptr %33, i32 0, i32 3
  %34 = load ptr, ptr %postContext36, align 8
  %vtable37 = load ptr, ptr %34, align 8
  %vfn38 = getelementptr inbounds ptr, ptr %vtable37, i64 3
  %35 = load ptr, ptr %vfn38, align 8
  %call40 = invoke noundef ptr %35(ptr noundef nonnull align 8 dereferenceable(108) %34)
          to label %invoke.cont39 unwind label %lpad

invoke.cont39:                                    ; preds = %if.then35
  %postContext41 = getelementptr inbounds %"class.icu_75::TransliterationRule", ptr %this1, i32 0, i32 3
  store ptr %call40, ptr %postContext41, align 8
  br label %if.end42

if.end42:                                         ; preds = %invoke.cont39, %if.end32
  %36 = load ptr, ptr %other.addr, align 8
  %output = getelementptr inbounds %"class.icu_75::TransliterationRule", ptr %36, i32 0, i32 4
  %37 = load ptr, ptr %output, align 8
  %vtable43 = load ptr, ptr %37, align 8
  %vfn44 = getelementptr inbounds ptr, ptr %vtable43, i64 3
  %38 = load ptr, ptr %vfn44, align 8
  %call46 = invoke noundef ptr %38(ptr noundef nonnull align 8 dereferenceable(8) %37)
          to label %invoke.cont45 unwind label %lpad

invoke.cont45:                                    ; preds = %if.end42
  %output47 = getelementptr inbounds %"class.icu_75::TransliterationRule", ptr %this1, i32 0, i32 4
  store ptr %call46, ptr %output47, align 8
  ret void

eh.resume:                                        ; preds = %lpad
  %exn = load ptr, ptr %exn.slot, align 8
  %sel = load i32, ptr %ehselector.slot, align 4
  %lpad.val = insertvalue { ptr, i32 } poison, ptr %exn, 0
  %lpad.val48 = insertvalue { ptr, i32 } %lpad.val, i32 %sel, 1
  resume { ptr, i32 } %lpad.val48
}