; Function Attrs: mustprogress uwtable
define void @_ZN6icu_7519TransliterationRuleC2ERS0_(ptr noundef nonnull align 8 dereferenceable(136) %this, ptr noundef nonnull align 8 dereferenceable(136) %other) unnamed_addr #1 align 2 personality ptr @__gxx_personality_v0 {
entry:
  store ptr getelementptr inbounds ({ [7 x ptr] }, ptr @_ZTVN6icu_7519TransliterationRuleE, i64 0, i32 0, i64 2), ptr %this, align 8
  %anteContext = getelementptr inbounds i8, ptr %this, i64 8
  %key = getelementptr inbounds i8, ptr %this, i64 16
  %postContext = getelementptr inbounds i8, ptr %this, i64 24
  %pattern = getelementptr inbounds i8, ptr %this, i64 40
  %pattern2 = getelementptr inbounds i8, ptr %other, i64 40
  tail call void @llvm.memset.p0.i64(ptr noundef nonnull align 8 dereferenceable(24) %anteContext, i8 0, i64 24, i1 false)
  tail call void @_ZN6icu_7513UnicodeStringC1ERKS0_(ptr noundef nonnull align 8 dereferenceable(64) %pattern, ptr noundef nonnull align 8 dereferenceable(64) %pattern2)
  %anteContextLength = getelementptr inbounds i8, ptr %this, i64 116
  %anteContextLength3 = getelementptr inbounds i8, ptr %other, i64 116
  %0 = load i32, ptr %anteContextLength3, align 4
  store i32 %0, ptr %anteContextLength, align 4
  %keyLength = getelementptr inbounds i8, ptr %this, i64 120
  %keyLength4 = getelementptr inbounds i8, ptr %other, i64 120
  %1 = load i32, ptr %keyLength4, align 8
  store i32 %1, ptr %keyLength, align 8
  %flags = getelementptr inbounds i8, ptr %this, i64 124
  %flags5 = getelementptr inbounds i8, ptr %other, i64 124
  %2 = load i8, ptr %flags5, align 4
  store i8 %2, ptr %flags, align 4
  %data = getelementptr inbounds i8, ptr %this, i64 128
  %data6 = getelementptr inbounds i8, ptr %other, i64 128
  %3 = load ptr, ptr %data6, align 8
  store ptr %3, ptr %data, align 8
  %segments = getelementptr inbounds i8, ptr %this, i64 104
  store ptr null, ptr %segments, align 8
  %segmentsCount = getelementptr inbounds i8, ptr %this, i64 112
  store i32 0, ptr %segmentsCount, align 8
  %segmentsCount7 = getelementptr inbounds i8, ptr %other, i64 112
  %4 = load i32, ptr %segmentsCount7, align 8
  %cmp = icmp sgt i32 %4, 0
  br i1 %cmp, label %if.then, label %if.end

if.then:                                          ; preds = %entry
  %conv = zext nneg i32 %4 to i64
  %mul = shl nuw nsw i64 %conv, 3
  %call = invoke noalias ptr @uprv_malloc_75(i64 noundef %mul) #12
          to label %invoke.cont unwind label %lpad

invoke.cont:                                      ; preds = %if.then
  store ptr %call, ptr %segments, align 8
  %segments11 = getelementptr inbounds i8, ptr %other, i64 104
  %5 = load ptr, ptr %segments11, align 8
  %6 = load i32, ptr %segmentsCount7, align 8
  %conv13 = sext i32 %6 to i64
  %mul14 = shl nsw i64 %conv13, 3
  tail call void @llvm.memcpy.p0.p0.i64(ptr align 8 %call, ptr align 8 %5, i64 %mul14, i1 false)
  br label %if.end

lpad:                                             ; preds = %if.end42, %if.then35, %if.then25, %if.then17, %if.then
  %7 = landingpad { ptr, i32 }
          cleanup
  tail call void @_ZN6icu_7513UnicodeStringD1Ev(ptr noundef nonnull align 8 dereferenceable(64) %pattern) #11
  resume { ptr, i32 } %7

if.end:                                           ; preds = %invoke.cont, %entry
  %anteContext15 = getelementptr inbounds i8, ptr %other, i64 8
  %8 = load ptr, ptr %anteContext15, align 8
  %cmp16.not = icmp eq ptr %8, null
  br i1 %cmp16.not, label %if.end22, label %if.then17

if.then17:                                        ; preds = %if.end
  %vtable = load ptr, ptr %8, align 8
  %vfn = getelementptr inbounds i8, ptr %vtable, i64 24
  %9 = load ptr, ptr %vfn, align 8
  %call20 = invoke noundef ptr %9(ptr noundef nonnull align 8 dereferenceable(108) %8)
          to label %invoke.cont19 unwind label %lpad

invoke.cont19:                                    ; preds = %if.then17
  store ptr %call20, ptr %anteContext, align 8
  br label %if.end22

if.end22:                                         ; preds = %invoke.cont19, %if.end
  %key23 = getelementptr inbounds i8, ptr %other, i64 16
  %10 = load ptr, ptr %key23, align 8
  %cmp24.not = icmp eq ptr %10, null
  br i1 %cmp24.not, label %if.end32, label %if.then25

if.then25:                                        ; preds = %if.end22
  %vtable27 = load ptr, ptr %10, align 8
  %vfn28 = getelementptr inbounds i8, ptr %vtable27, i64 24
  %11 = load ptr, ptr %vfn28, align 8
  %call30 = invoke noundef ptr %11(ptr noundef nonnull align 8 dereferenceable(108) %10)
          to label %invoke.cont29 unwind label %lpad

invoke.cont29:                                    ; preds = %if.then25
  store ptr %call30, ptr %key, align 8
  br label %if.end32

if.end32:                                         ; preds = %invoke.cont29, %if.end22
  %postContext33 = getelementptr inbounds i8, ptr %other, i64 24
  %12 = load ptr, ptr %postContext33, align 8
  %cmp34.not = icmp eq ptr %12, null
  br i1 %cmp34.not, label %if.end42, label %if.then35

if.then35:                                        ; preds = %if.end32
  %vtable37 = load ptr, ptr %12, align 8
  %vfn38 = getelementptr inbounds i8, ptr %vtable37, i64 24
  %13 = load ptr, ptr %vfn38, align 8
  %call40 = invoke noundef ptr %13(ptr noundef nonnull align 8 dereferenceable(108) %12)
          to label %invoke.cont39 unwind label %lpad

invoke.cont39:                                    ; preds = %if.then35
  store ptr %call40, ptr %postContext, align 8
  br label %if.end42

if.end42:                                         ; preds = %invoke.cont39, %if.end32
  %output = getelementptr inbounds i8, ptr %other, i64 32
  %14 = load ptr, ptr %output, align 8
  %vtable43 = load ptr, ptr %14, align 8
  %vfn44 = getelementptr inbounds i8, ptr %vtable43, i64 24
  %15 = load ptr, ptr %vfn44, align 8
  %call46 = invoke noundef ptr %15(ptr noundef nonnull align 8 dereferenceable(8) %14)
          to label %invoke.cont45 unwind label %lpad

invoke.cont45:                                    ; preds = %if.end42
  %output47 = getelementptr inbounds i8, ptr %this, i64 32
  store ptr %call46, ptr %output47, align 8
  ret void
}